target datalayout = "e-m:e-p270:32:32-p271:32:32-p272:64:64-i64:64-i128:128-f80:128-n8:16:32:64-S128"
target triple = "x86_64-pc-linux-gnu"

%struct.evp_cipher_ctx_st = type { ptr, ptr, i32, i32, [16 x i8], [16 x i8], [32 x i8], i32, ptr, i32, i32, i64, ptr, i32, i32, [32 x i8], i64, ptr, ptr }
%struct.EVP_AES_OCB_CTX = type { %union.anon.7, %union.anon.8, i32, i32, %struct.ocb128_context, ptr, [16 x i8], [16 x i8], [16 x i8], i32, i32, i32, i32 }
%union.anon.7 = type { double, [240 x i8] }
%union.anon.8 = type { double, [240 x i8] }
%struct.ocb128_context = type { ptr, ptr, ptr, ptr, ptr, i64, i64, %union.OCB_BLOCK, %union.OCB_BLOCK, ptr, %struct.anon }
%union.OCB_BLOCK = type { [2 x i64] }
%struct.anon = type { i64, i64, %union.OCB_BLOCK, %union.OCB_BLOCK, %union.OCB_BLOCK, %union.OCB_BLOCK }

; Function Attrs: nounwind uwtable
define internal i32 @aes_ocb_ctrl(ptr noundef %0, i32 noundef %1, i32 noundef %2, ptr noundef %3) #0 {
  %5 = alloca i32, align 4
  %6 = alloca ptr, align 8
  %7 = alloca i32, align 4
  %8 = alloca i32, align 4
  %9 = alloca ptr, align 8
  %10 = alloca ptr, align 8
  %11 = alloca ptr, align 8
  %12 = alloca ptr, align 8
  %13 = alloca i32, align 4
  store ptr %0, ptr %6, align 8, !tbaa !7
  store i32 %1, ptr %7, align 4, !tbaa !3
  store i32 %2, ptr %8, align 4, !tbaa !3
  store ptr %3, ptr %9, align 8, !tbaa !12
  call void @llvm.lifetime.start.p0(i64 8, ptr %10) #4
  %14 = load ptr, ptr %6, align 8, !tbaa !7
  %15 = call ptr @EVP_CIPHER_CTX_get_cipher_data(ptr noundef %14)
  store ptr %15, ptr %10, align 8, !tbaa !12
  call void @llvm.lifetime.start.p0(i64 8, ptr %11) #4
  call void @llvm.lifetime.start.p0(i64 8, ptr %12) #4
  %16 = load i32, ptr %7, align 4, !tbaa !3
  switch i32 %16, label %118 [
    i32 0, label %17
    i32 37, label %39
    i32 9, label %44
    i32 17, label %55
    i32 16, label %87
    i32 8, label %105
  ]

17:                                               ; preds = %4
  %18 = load ptr, ptr %10, align 8, !tbaa !12
  %19 = getelementptr inbounds nuw %struct.EVP_AES_OCB_CTX, ptr %18, i32 0, i32 2
  store i32 0, ptr %19, align 8, !tbaa !74
  %20 = load ptr, ptr %10, align 8, !tbaa !12
  %21 = getelementptr inbounds nuw %struct.EVP_AES_OCB_CTX, ptr %20, i32 0, i32 3
  store i32 0, ptr %21, align 4, !tbaa !67
  %22 = load ptr, ptr %6, align 8, !tbaa !7
  %23 = getelementptr inbounds nuw %struct.evp_cipher_ctx_st, ptr %22, i32 0, i32 0
  %24 = load ptr, ptr %23, align 8, !tbaa !35
  %25 = call i32 @EVP_CIPHER_get_iv_length(ptr noundef %24)
  %26 = load ptr, ptr %10, align 8, !tbaa !12
  %27 = getelementptr inbounds nuw %struct.EVP_AES_OCB_CTX, ptr %26, i32 0, i32 11
  store i32 %25, ptr %27, align 8, !tbaa !72
  %28 = load ptr, ptr %6, align 8, !tbaa !7
  %29 = getelementptr inbounds nuw %struct.evp_cipher_ctx_st, ptr %28, i32 0, i32 5
  %30 = getelementptr inbounds [16 x i8], ptr %29, i64 0, i64 0
  %31 = load ptr, ptr %10, align 8, !tbaa !12
  %32 = getelementptr inbounds nuw %struct.EVP_AES_OCB_CTX, ptr %31, i32 0, i32 5
  store ptr %30, ptr %32, align 8, !tbaa !71
  %33 = load ptr, ptr %10, align 8, !tbaa !12
  %34 = getelementptr inbounds nuw %struct.EVP_AES_OCB_CTX, ptr %33, i32 0, i32 12
  store i32 16, ptr %34, align 4, !tbaa !73
  %35 = load ptr, ptr %10, align 8, !tbaa !12
  %36 = getelementptr inbounds nuw %struct.EVP_AES_OCB_CTX, ptr %35, i32 0, i32 9
  store i32 0, ptr %36, align 8, !tbaa !77
  %37 = load ptr, ptr %10, align 8, !tbaa !12
  %38 = getelementptr inbounds nuw %struct.EVP_AES_OCB_CTX, ptr %37, i32 0, i32 10
  store i32 0, ptr %38, align 4, !tbaa !78
  store i32 1, ptr %5, align 4
  store i32 1, ptr %13, align 4
  br label %119

39:                                               ; preds = %4
  %40 = load ptr, ptr %10, align 8, !tbaa !12
  %41 = getelementptr inbounds nuw %struct.EVP_AES_OCB_CTX, ptr %40, i32 0, i32 11
  %42 = load i32, ptr %41, align 8, !tbaa !72
  %43 = load ptr, ptr %9, align 8, !tbaa !12
  store i32 %42, ptr %43, align 4, !tbaa !3
  store i32 1, ptr %5, align 4
  store i32 1, ptr %13, align 4
  br label %119

44:                                               ; preds = %4
  %45 = load i32, ptr %8, align 4, !tbaa !3
  %46 = icmp sle i32 %45, 0
  br i1 %46, label %50, label %47

47:                                               ; preds = %44
  %48 = load i32, ptr %8, align 4, !tbaa !3
  %49 = icmp sgt i32 %48, 15
  br i1 %49, label %50, label %51

50:                                               ; preds = %47, %44
  store i32 0, ptr %5, align 4
  store i32 1, ptr %13, align 4
  br label %119

51:                                               ; preds = %47
  %52 = load i32, ptr %8, align 4, !tbaa !3
  %53 = load ptr, ptr %10, align 8, !tbaa !12
  %54 = getelementptr inbounds nuw %struct.EVP_AES_OCB_CTX, ptr %53, i32 0, i32 11
  store i32 %52, ptr %54, align 8, !tbaa !72
  store i32 1, ptr %5, align 4
  store i32 1, ptr %13, align 4
  br label %119

55:                                               ; preds = %4
  %56 = load ptr, ptr %9, align 8, !tbaa !12
  %57 = icmp eq ptr %56, null
  br i1 %57, label %58, label %69

58:                                               ; preds = %55
  %59 = load i32, ptr %8, align 4, !tbaa !3
  %60 = icmp slt i32 %59, 0
  br i1 %60, label %64, label %61

61:                                               ; preds = %58
  %62 = load i32, ptr %8, align 4, !tbaa !3
  %63 = icmp sgt i32 %62, 16
  br i1 %63, label %64, label %65

64:                                               ; preds = %61, %58
  store i32 0, ptr %5, align 4
  store i32 1, ptr %13, align 4
  br label %119

65:                                               ; preds = %61
  %66 = load i32, ptr %8, align 4, !tbaa !3
  %67 = load ptr, ptr %10, align 8, !tbaa !12
  %68 = getelementptr inbounds nuw %struct.EVP_AES_OCB_CTX, ptr %67, i32 0, i32 12
  store i32 %66, ptr %68, align 4, !tbaa !73
  store i32 1, ptr %5, align 4
  store i32 1, ptr %13, align 4
  br label %119

69:                                               ; preds = %55
  %70 = load i32, ptr %8, align 4, !tbaa !3
  %71 = load ptr, ptr %10, align 8, !tbaa !12
  %72 = getelementptr inbounds nuw %struct.EVP_AES_OCB_CTX, ptr %71, i32 0, i32 12
  %73 = load i32, ptr %72, align 4, !tbaa !73
  %74 = icmp ne i32 %70, %73
  br i1 %74, label %79, label %75

75:                                               ; preds = %69
  %76 = load ptr, ptr %6, align 8, !tbaa !7
  %77 = call i32 @EVP_CIPHER_CTX_is_encrypting(ptr noundef %76)
  %78 = icmp ne i32 %77, 0
  br i1 %78, label %79, label %80

79:                                               ; preds = %75, %69
  store i32 0, ptr %5, align 4
  store i32 1, ptr %13, align 4
  br label %119

80:                                               ; preds = %75
  %81 = load ptr, ptr %10, align 8, !tbaa !12
  %82 = getelementptr inbounds nuw %struct.EVP_AES_OCB_CTX, ptr %81, i32 0, i32 6
  %83 = getelementptr inbounds [16 x i8], ptr %82, i64 0, i64 0
  %84 = load ptr, ptr %9, align 8, !tbaa !12
  %85 = load i32, ptr %8, align 4, !tbaa !3
  %86 = sext i32 %85 to i64
  call void @llvm.memcpy.p0.p0.i64(ptr align 8 %83, ptr align 1 %84, i64 %86, i1 false)
  store i32 1, ptr %5, align 4
  store i32 1, ptr %13, align 4
  br label %119

87:                                               ; preds = %4
  %88 = load i32, ptr %8, align 4, !tbaa !3
  %89 = load ptr, ptr %10, align 8, !tbaa !12
  %90 = getelementptr inbounds nuw %struct.EVP_AES_OCB_CTX, ptr %89, i32 0, i32 12
  %91 = load i32, ptr %90, align 4, !tbaa !73
  %92 = icmp ne i32 %88, %91
  br i1 %92, label %97, label %93

93:                                               ; preds = %87
  %94 = load ptr, ptr %6, align 8, !tbaa !7
  %95 = call i32 @EVP_CIPHER_CTX_is_encrypting(ptr noundef %94)
  %96 = icmp ne i32 %95, 0
  br i1 %96, label %98, label %97

97:                                               ; preds = %93, %87
  store i32 0, ptr %5, align 4
  store i32 1, ptr %13, align 4
  br label %119

98:                                               ; preds = %93
  %99 = load ptr, ptr %9, align 8, !tbaa !12
  %100 = load ptr, ptr %10, align 8, !tbaa !12
  %101 = getelementptr inbounds nuw %struct.EVP_AES_OCB_CTX, ptr %100, i32 0, i32 6
  %102 = getelementptr inbounds [16 x i8], ptr %101, i64 0, i64 0
  %103 = load i32, ptr %8, align 4, !tbaa !3
  %104 = sext i32 %103 to i64
  call void @llvm.memcpy.p0.p0.i64(ptr align 1 %99, ptr align 8 %102, i64 %104, i1 false)
  store i32 1, ptr %5, align 4
  store i32 1, ptr %13, align 4
  br label %119

105:                                              ; preds = %4
  %106 = load ptr, ptr %9, align 8, !tbaa !12
  store ptr %106, ptr %11, align 8, !tbaa !7
  %107 = load ptr, ptr %11, align 8, !tbaa !7
  %108 = call ptr @EVP_CIPHER_CTX_get_cipher_data(ptr noundef %107)
  store ptr %108, ptr %12, align 8, !tbaa !12
  %109 = load ptr, ptr %12, align 8, !tbaa !12
  %110 = getelementptr inbounds nuw %struct.EVP_AES_OCB_CTX, ptr %109, i32 0, i32 4
  %111 = load ptr, ptr %10, align 8, !tbaa !12
  %112 = getelementptr inbounds nuw %struct.EVP_AES_OCB_CTX, ptr %111, i32 0, i32 4
  %113 = load ptr, ptr %12, align 8, !tbaa !12
  %114 = getelementptr inbounds nuw %struct.EVP_AES_OCB_CTX, ptr %113, i32 0, i32 0
  %115 = load ptr, ptr %12, align 8, !tbaa !12
  %116 = getelementptr inbounds nuw %struct.EVP_AES_OCB_CTX, ptr %115, i32 0, i32 1
  %117 = call i32 @CRYPTO_ocb128_copy_ctx(ptr noundef %110, ptr noundef %112, ptr noundef %114, ptr noundef %116)
  store i32 %117, ptr %5, align 4
  store i32 1, ptr %13, align 4
  br label %119

118:                                              ; preds = %4
  store i32 -1, ptr %5, align 4
  store i32 1, ptr %13, align 4
  br label %119

119:                                              ; preds = %118, %105, %98, %97, %80, %79, %65, %64, %51, %50, %39, %17
  call void @llvm.lifetime.end.p0(i64 8, ptr %12) #4
  call void @llvm.lifetime.end.p0(i64 8, ptr %11) #4
  call void @llvm.lifetime.end.p0(i64 8, ptr %10) #4
  %120 = load i32, ptr %5, align 4
  ret i32 %120
}