; Function Attrs: nounwind uwtable
define internal i32 @aes_ocb_ctrl(ptr noundef %0, i32 noundef %1, i32 noundef %2, ptr noundef %3) #2 {
  %5 = tail call ptr @EVP_CIPHER_CTX_get_cipher_data(ptr noundef %0) #8
  switch i32 %1, label %51 [
    i32 0, label %6
    i32 37, label %17
    i32 9, label %20
    i32 17, label %24
    i32 16, label %37
    i32 8, label %45
  ]

6:                                                ; preds = %4
  %7 = getelementptr inbounds nuw i8, ptr %5, i64 496
  store i32 0, ptr %7, align 8, !tbaa !65
  %8 = getelementptr inbounds nuw i8, ptr %5, i64 500
  store i32 0, ptr %8, align 4, !tbaa !58
  %9 = load ptr, ptr %0, align 8, !tbaa !31
  %10 = tail call i32 @EVP_CIPHER_get_iv_length(ptr noundef %9) #8
  %11 = getelementptr inbounds nuw i8, ptr %5, i64 744
  store i32 %10, ptr %11, align 8, !tbaa !63
  %12 = getelementptr inbounds nuw i8, ptr %0, i64 40
  %13 = getelementptr inbounds nuw i8, ptr %5, i64 680
  store ptr %12, ptr %13, align 8, !tbaa !62
  %14 = getelementptr inbounds nuw i8, ptr %5, i64 748
  store i32 16, ptr %14, align 4, !tbaa !64
  %15 = getelementptr inbounds nuw i8, ptr %5, i64 736
  store i32 0, ptr %15, align 8, !tbaa !66
  %16 = getelementptr inbounds nuw i8, ptr %5, i64 740
  store i32 0, ptr %16, align 4, !tbaa !67
  br label %51

17:                                               ; preds = %4
  %18 = getelementptr inbounds nuw i8, ptr %5, i64 744
  %19 = load i32, ptr %18, align 8, !tbaa !63
  store i32 %19, ptr %3, align 4, !tbaa !3
  br label %51

20:                                               ; preds = %4
  %21 = add i32 %2, -16
  %or.cond = icmp ult i32 %21, -15
  br i1 %or.cond, label %51, label %22

22:                                               ; preds = %20
  %23 = getelementptr inbounds nuw i8, ptr %5, i64 744
  store i32 %2, ptr %23, align 8, !tbaa !63
  br label %51

24:                                               ; preds = %4
  %25 = icmp eq ptr %3, null
  br i1 %25, label %26, label %29

26:                                               ; preds = %24
  %or.cond3 = icmp ugt i32 %2, 16
  br i1 %or.cond3, label %51, label %27

27:                                               ; preds = %26
  %28 = getelementptr inbounds nuw i8, ptr %5, i64 748
  store i32 %2, ptr %28, align 4, !tbaa !64
  br label %51

29:                                               ; preds = %24
  %30 = getelementptr inbounds nuw i8, ptr %5, i64 748
  %31 = load i32, ptr %30, align 4, !tbaa !64
  %.not46 = icmp eq i32 %2, %31
  br i1 %.not46, label %32, label %51

32:                                               ; preds = %29
  %33 = tail call i32 @EVP_CIPHER_CTX_is_encrypting(ptr noundef %0) #8
  %.not47 = icmp eq i32 %33, 0
  br i1 %.not47, label %34, label %51

34:                                               ; preds = %32
  %35 = getelementptr inbounds nuw i8, ptr %5, i64 688
  %36 = sext i32 %2 to i64
  tail call void @llvm.memcpy.p0.p0.i64(ptr nonnull align 8 %35, ptr nonnull align 1 %3, i64 %36, i1 false)
  br label %51

37:                                               ; preds = %4
  %38 = getelementptr inbounds nuw i8, ptr %5, i64 748
  %39 = load i32, ptr %38, align 4, !tbaa !64
  %.not = icmp eq i32 %2, %39
  br i1 %.not, label %40, label %51

40:                                               ; preds = %37
  %41 = tail call i32 @EVP_CIPHER_CTX_is_encrypting(ptr noundef %0) #8
  %.not45 = icmp eq i32 %41, 0
  br i1 %.not45, label %51, label %42

42:                                               ; preds = %40
  %43 = getelementptr inbounds nuw i8, ptr %5, i64 688
  %44 = sext i32 %2 to i64
  tail call void @llvm.memcpy.p0.p0.i64(ptr align 1 %3, ptr nonnull align 8 %43, i64 %44, i1 false)
  br label %51

45:                                               ; preds = %4
  %46 = tail call ptr @EVP_CIPHER_CTX_get_cipher_data(ptr noundef %3) #8
  %47 = getelementptr inbounds nuw i8, ptr %46, i64 504
  %48 = getelementptr inbounds nuw i8, ptr %5, i64 504
  %49 = getelementptr inbounds nuw i8, ptr %46, i64 248
  %50 = tail call i32 @CRYPTO_ocb128_copy_ctx(ptr noundef nonnull %47, ptr noundef nonnull %48, ptr noundef %46, ptr noundef nonnull %49) #8
  br label %51

51:                                               ; preds = %4, %37, %40, %29, %32, %26, %20, %45, %42, %34, %27, %22, %17, %6
  %.0 = phi i32 [ %50, %45 ], [ 1, %42 ], [ 1, %27 ], [ 1, %34 ], [ 1, %22 ], [ 1, %17 ], [ 1, %6 ], [ 0, %20 ], [ 0, %26 ], [ 0, %32 ], [ 0, %29 ], [ 0, %40 ], [ 0, %37 ], [ -1, %4 ]
  ret i32 %.0
}